target datalayout = "e-m:e-p270:32:32-p271:32:32-p272:64:64-i64:64-i128:128-f80:128-n8:16:32:64-S128"
target triple = "x86_64-pc-linux-gnu"

%"class.std::basic_ostream" = type { ptr, %"class.std::basic_ios" }
%"class.std::basic_ios" = type { %"class.std::ios_base", ptr, i8, i8, ptr, ptr, ptr, ptr }
%"class.std::ios_base" = type { ptr, i64, i64, i32, i32, i32, ptr, %"struct.std::ios_base::_Words", [8 x %"struct.std::ios_base::_Words"], i32, ptr, %"class.std::locale" }
%"struct.std::ios_base::_Words" = type { ptr, i64 }
%"class.std::locale" = type { ptr }

@_ZTISt9bad_alloc = external constant ptr
@_ZTISt9exception = external constant ptr
@_ZSt4cerr = external global %"class.std::basic_ostream", align 8
@.str.12 = private unnamed_addr constant [75 x i8] c"Something went wrong during jsonnet_evaluate_snippet, please report this: \00", align 1

; Function Attrs: mustprogress uwtable
define ptr @jsonnet_evaluate_snippet(ptr noundef %0, ptr noundef %1, ptr noundef %2, ptr noundef %3) #4 personality ptr @__gxx_personality_v0 {
  %5 = alloca ptr, align 8
  %6 = alloca ptr, align 8
  %7 = alloca ptr, align 8
  %8 = alloca ptr, align 8
  %9 = alloca ptr, align 8
  %10 = alloca ptr, align 8
  %11 = alloca i32, align 4
  %12 = alloca ptr, align 8
  %13 = alloca ptr, align 8
  store ptr %0, ptr %6, align 8
  store ptr %1, ptr %7, align 8
  store ptr %2, ptr %8, align 8
  store ptr %3, ptr %9, align 8
  %14 = load ptr, ptr %6, align 8
  %15 = load ptr, ptr %7, align 8
  %16 = load ptr, ptr %8, align 8
  %17 = load ptr, ptr %9, align 8
  %18 = invoke noundef ptr @_ZL28jsonnet_evaluate_snippet_auxP9JsonnetVmPKcS2_PiN12_GLOBAL__N_18EvalKindE(ptr noundef %14, ptr noundef %15, ptr noundef %16, ptr noundef %17, i32 noundef 0)
          to label %19 unwind label %20

19:                                               ; preds = %4
  store ptr %18, ptr %5, align 8
  br label %60

20:                                               ; preds = %4
  %21 = landingpad { ptr, i32 }
          catch ptr @_ZTISt9bad_alloc
          catch ptr @_ZTISt9exception
  %22 = extractvalue { ptr, i32 } %21, 0
  store ptr %22, ptr %10, align 8
  %23 = extractvalue { ptr, i32 } %21, 1
  store i32 %23, ptr %11, align 4
  br label %24

24:                                               ; preds = %20
  %25 = load i32, ptr %11, align 4
  %26 = call i32 @llvm.eh.typeid.for(ptr @_ZTISt9bad_alloc) #3
  %27 = icmp eq i32 %25, %26
  br i1 %27, label %28, label %33

28:                                               ; preds = %24
  %29 = load ptr, ptr %10, align 8
  %30 = call ptr @__cxa_begin_catch(ptr %29) #3
  store ptr %30, ptr %13, align 8
  invoke void @_ZL12memory_panicv()
          to label %31 unwind label %55

31:                                               ; preds = %28
  call void @__cxa_end_catch()
  br label %32

32:                                               ; preds = %31
  store ptr null, ptr %5, align 8
  br label %60

33:                                               ; preds = %24
  %34 = call i32 @llvm.eh.typeid.for(ptr @_ZTISt9exception) #3
  %35 = icmp eq i32 %25, %34
  br i1 %35, label %36, label %62

36:                                               ; preds = %33
  %37 = load ptr, ptr %10, align 8
  %38 = call ptr @__cxa_begin_catch(ptr %37) #3
  store ptr %38, ptr %12, align 8
  %39 = invoke noundef nonnull align 8 dereferenceable(8) ptr @_ZStlsISt11char_traitsIcEERSt13basic_ostreamIcT_ES5_PKc(ptr noundef nonnull align 8 dereferenceable(8) @_ZSt4cerr, ptr noundef @.str.12)
          to label %40 unwind label %50

40:                                               ; preds = %36
  %41 = load ptr, ptr %12, align 8
  %42 = load ptr, ptr %41, align 8
  %43 = getelementptr inbounds ptr, ptr %42, i64 2
  %44 = load ptr, ptr %43, align 8
  %45 = call noundef ptr %44(ptr noundef nonnull align 8 dereferenceable(8) %41) #3
  %46 = invoke noundef nonnull align 8 dereferenceable(8) ptr @_ZStlsISt11char_traitsIcEERSt13basic_ostreamIcT_ES5_PKc(ptr noundef nonnull align 8 dereferenceable(8) %39, ptr noundef %45)
          to label %47 unwind label %50

47:                                               ; preds = %40
  %48 = invoke noundef nonnull align 8 dereferenceable(8) ptr @_ZNSolsEPFRSoS_E(ptr noundef nonnull align 8 dereferenceable(8) %46, ptr noundef @_ZSt4endlIcSt11char_traitsIcEERSt13basic_ostreamIT_T0_ES6_)
          to label %49 unwind label %50

49:                                               ; preds = %47
  call void @abort() #20
  unreachable

50:                                               ; preds = %47, %40, %36
  %51 = landingpad { ptr, i32 }
          cleanup
  %52 = extractvalue { ptr, i32 } %51, 0
  store ptr %52, ptr %10, align 8
  %53 = extractvalue { ptr, i32 } %51, 1
  store i32 %53, ptr %11, align 4
  invoke void @__cxa_end_catch()
          to label %54 unwind label %67

54:                                               ; preds = %50
  br label %62

55:                                               ; preds = %28
  %56 = landingpad { ptr, i32 }
          cleanup
  %57 = extractvalue { ptr, i32 } %56, 0
  store ptr %57, ptr %10, align 8
  %58 = extractvalue { ptr, i32 } %56, 1
  store i32 %58, ptr %11, align 4
  invoke void @__cxa_end_catch()
          to label %59 unwind label %67

59:                                               ; preds = %55
  br label %62

60:                                               ; preds = %32, %19
  %61 = load ptr, ptr %5, align 8
  ret ptr %61

62:                                               ; preds = %59, %54, %33
  %63 = load ptr, ptr %10, align 8
  %64 = load i32, ptr %11, align 4
  %65 = insertvalue { ptr, i32 } poison, ptr %63, 0
  %66 = insertvalue { ptr, i32 } %65, i32 %64, 1
  resume { ptr, i32 } %66

67:                                               ; preds = %55, %50
  %68 = landingpad { ptr, i32 }
          catch ptr null
  %69 = extractvalue { ptr, i32 } %68, 0
  call void @__clang_call_terminate(ptr %69) #20
  unreachable
}